target datalayout = "e-m:e-p270:32:32-p271:32:32-p272:64:64-i64:64-f80:128-n8:16:32:64-S128"
target triple = "x86_64-pc-linux-gnu"

@.str = private unnamed_addr constant [3 x i8] c"%d\00", align 1
@.str.1 = private unnamed_addr constant [3 x i8] c"No\00", align 1

; Function Attrs: noinline nounwind uwtable
define dso_local void @main() #0 {
  %1 = alloca [1500 x i8], align 16
  %2 = alloca [300 x i32], align 16
  %3 = alloca [300 x i32], align 16
  %4 = alloca i32, align 4
  %5 = alloca i32, align 4
  %6 = alloca i32, align 4
  %7 = alloca i32, align 4
  %8 = alloca i32, align 4
  %9 = alloca i32, align 4
  %10 = alloca i32, align 4
  %11 = alloca i32, align 4
  %12 = alloca i32, align 4
  %13 = bitcast [1500 x i8]* %1 to i8*
  call void @llvm.memset.p0i8.i64(i8* align 16 %13, i8 0, i64 1500, i1 false)
  %14 = bitcast [300 x i32]* %2 to i8*
  call void @llvm.memset.p0i8.i64(i8* align 16 %14, i8 0, i64 1200, i1 false)
  %15 = bitcast [300 x i32]* %3 to i8*
  call void @llvm.memset.p0i8.i64(i8* align 16 %15, i8 0, i64 1200, i1 false)
  store i32 1, i32* %4, align 4
  store i32 0, i32* %7, align 4
  store i32 0, i32* %8, align 4
  %16 = getelementptr inbounds [1500 x i8], [1500 x i8]* %1, i64 0, i64 0
  %17 = call i32 (i8*, ...) bitcast (i32 (...)* @gets to i32 (i8*, ...)*)(i8* %16)
  %18 = getelementptr inbounds [1500 x i8], [1500 x i8]* %1, i64 0, i64 0
  %19 = call i64 @strlen(i8* %18) #4
  %20 = trunc i64 %19 to i32
  store i32 %20, i32* %6, align 4
  store i32 0, i32* %5, align 4
  br label %21

21:                                               ; preds = %51, %0
  %22 = load i32, i32* %5, align 4
  %23 = load i32, i32* %6, align 4
  %24 = icmp slt i32 %22, %23
  br i1 %24, label %25, label %54

25:                                               ; preds = %21
  %26 = load i32, i32* %5, align 4
  %27 = sext i32 %26 to i64
  %28 = getelementptr inbounds [1500 x i8], [1500 x i8]* %1, i64 0, i64 %27
  %29 = load i8, i8* %28, align 1
  %30 = sext i8 %29 to i32
  %31 = icmp ne i32 %30, 44
  br i1 %31, label %32, label %43

32:                                               ; preds = %25
  %33 = load i32, i32* %5, align 4
  %34 = sext i32 %33 to i64
  %35 = getelementptr inbounds [1500 x i8], [1500 x i8]* %1, i64 0, i64 %34
  %36 = load i8, i8* %35, align 1
  %37 = sext i8 %36 to i32
  %38 = sub nsw i32 %37, 48
  %39 = trunc i32 %38 to i8
  %40 = load i32, i32* %5, align 4
  %41 = sext i32 %40 to i64
  %42 = getelementptr inbounds [1500 x i8], [1500 x i8]* %1, i64 0, i64 %41
  store i8 %39, i8* %42, align 1
  br label %50

43:                                               ; preds = %25
  %44 = load i32, i32* %5, align 4
  %45 = load i32, i32* %4, align 4
  %46 = sext i32 %45 to i64
  %47 = getelementptr inbounds [300 x i32], [300 x i32]* %2, i64 0, i64 %46
  store i32 %44, i32* %47, align 4
  %48 = load i32, i32* %4, align 4
  %49 = add nsw i32 %48, 1
  store i32 %49, i32* %4, align 4
  br label %50

50:                                               ; preds = %43, %32
  br label %51

51:                                               ; preds = %50
  %52 = load i32, i32* %5, align 4
  %53 = add nsw i32 %52, 1
  store i32 %53, i32* %5, align 4
  br label %21

54:                                               ; preds = %21
  %55 = getelementptr inbounds [300 x i32], [300 x i32]* %2, i64 0, i64 0
  store i32 -1, i32* %55, align 16
  %56 = load i32, i32* %6, align 4
  %57 = load i32, i32* %4, align 4
  %58 = sext i32 %57 to i64
  %59 = getelementptr inbounds [300 x i32], [300 x i32]* %2, i64 0, i64 %58
  store i32 %56, i32* %59, align 4
  store i32 0, i32* %5, align 4
  br label %60

60:                                               ; preds = %100, %54
  %61 = load i32, i32* %5, align 4
  %62 = load i32, i32* %4, align 4
  %63 = icmp sle i32 %61, %62
  br i1 %63, label %64, label %103

64:                                               ; preds = %60
  %65 = load i32, i32* %5, align 4
  %66 = sext i32 %65 to i64
  %67 = getelementptr inbounds [300 x i32], [300 x i32]* %2, i64 0, i64 %66
  %68 = load i32, i32* %67, align 4
  %69 = add nsw i32 %68, 1
  store i32 %69, i32* %9, align 4
  br label %70

70:                                               ; preds = %94, %64
  %71 = load i32, i32* %9, align 4
  %72 = load i32, i32* %5, align 4
  %73 = add nsw i32 %72, 1
  %74 = sext i32 %73 to i64
  %75 = getelementptr inbounds [300 x i32], [300 x i32]* %2, i64 0, i64 %74
  %76 = load i32, i32* %75, align 4
  %77 = sub nsw i32 %76, 1
  %78 = icmp sle i32 %71, %77
  br i1 %78, label %79, label %97

79:                                               ; preds = %70
  %80 = load i32, i32* %8, align 4
  %81 = sext i32 %80 to i64
  %82 = getelementptr inbounds [300 x i32], [300 x i32]* %3, i64 0, i64 %81
  %83 = load i32, i32* %82, align 4
  %84 = mul nsw i32 %83, 10
  %85 = load i32, i32* %9, align 4
  %86 = sext i32 %85 to i64
  %87 = getelementptr inbounds [1500 x i8], [1500 x i8]* %1, i64 0, i64 %86
  %88 = load i8, i8* %87, align 1
  %89 = sext i8 %88 to i32
  %90 = add nsw i32 %84, %89
  %91 = load i32, i32* %8, align 4
  %92 = sext i32 %91 to i64
  %93 = getelementptr inbounds [300 x i32], [300 x i32]* %3, i64 0, i64 %92
  store i32 %90, i32* %93, align 4
  br label %94

94:                                               ; preds = %79
  %95 = load i32, i32* %9, align 4
  %96 = add nsw i32 %95, 1
  store i32 %96, i32* %9, align 4
  br label %70

97:                                               ; preds = %70
  %98 = load i32, i32* %8, align 4
  %99 = add nsw i32 %98, 1
  store i32 %99, i32* %8, align 4
  br label %100

100:                                              ; preds = %97
  %101 = load i32, i32* %5, align 4
  %102 = add nsw i32 %101, 1
  store i32 %102, i32* %5, align 4
  br label %60

103:                                              ; preds = %60
  %104 = getelementptr inbounds [300 x i32], [300 x i32]* %3, i64 0, i64 0
  %105 = load i32, i32* %104, align 16
  store i32 %105, i32* %12, align 4
  store i32 1, i32* %5, align 4
  br label %106

106:                                              ; preds = %123, %103
  %107 = load i32, i32* %5, align 4
  %108 = load i32, i32* %4, align 4
  %109 = icmp slt i32 %107, %108
  br i1 %109, label %110, label %126

110:                                              ; preds = %106
  %111 = load i32, i32* %5, align 4
  %112 = sext i32 %111 to i64
  %113 = getelementptr inbounds [300 x i32], [300 x i32]* %3, i64 0, i64 %112
  %114 = load i32, i32* %113, align 4
  %115 = load i32, i32* %12, align 4
  %116 = icmp sgt i32 %114, %115
  br i1 %116, label %117, label %122

117:                                              ; preds = %110
  %118 = load i32, i32* %5, align 4
  %119 = sext i32 %118 to i64
  %120 = getelementptr inbounds [300 x i32], [300 x i32]* %3, i64 0, i64 %119
  %121 = load i32, i32* %120, align 4
  store i32 %121, i32* %12, align 4
  br label %122

122:                                              ; preds = %117, %110
  br label %123

123:                                              ; preds = %122
  %124 = load i32, i32* %5, align 4
  %125 = add nsw i32 %124, 1
  store i32 %125, i32* %5, align 4
  br label %106

126:                                              ; preds = %106
  store i32 0, i32* %10, align 4
  store i32 0, i32* %5, align 4
  br label %127

127:                                              ; preds = %175, %126
  %128 = load i32, i32* %5, align 4
  %129 = load i32, i32* %4, align 4
  %130 = icmp slt i32 %128, %129
  br i1 %130, label %131, label %178

131:                                              ; preds = %127
  store i32 0, i32* %11, align 4
  store i32 0, i32* %9, align 4
  br label %132

132:                                              ; preds = %155, %131
  %133 = load i32, i32* %9, align 4
  %134 = load i32, i32* %4, align 4
  %135 = icmp slt i32 %133, %134
  br i1 %135, label %136, label %158

136:                                              ; preds = %132
  %137 = load i32, i32* %9, align 4
  %138 = sext i32 %137 to i64
  %139 = getelementptr inbounds [300 x i32], [300 x i32]* %3, i64 0, i64 %138
  %140 = load i32, i32* %139, align 4
  %141 = load i32, i32* %12, align 4
  %142 = icmp ne i32 %140, %141
  br i1 %142, label %143, label %154

143:                                              ; preds = %136
  %144 = load i32, i32* %9, align 4
  %145 = sext i32 %144 to i64
  %146 = getelementptr inbounds [300 x i32], [300 x i32]* %3, i64 0, i64 %145
  %147 = load i32, i32* %146, align 4
  %148 = load i32, i32* %5, align 4
  %149 = sext i32 %148 to i64
  %150 = getelementptr inbounds [300 x i32], [300 x i32]* %3, i64 0, i64 %149
  %151 = load i32, i32* %150, align 4
  %152 = icmp sgt i32 %147, %151
  br i1 %152, label %153, label %154

153:                                              ; preds = %143
  store i32 1, i32* %11, align 4
  br label %158

154:                                              ; preds = %143, %136
  br label %155

155:                                              ; preds = %154
  %156 = load i32, i32* %9, align 4
  %157 = add nsw i32 %156, 1
  store i32 %157, i32* %9, align 4
  br label %132

158:                                              ; preds = %153, %132
  %159 = load i32, i32* %11, align 4
  %160 = icmp eq i32 %159, 0
  br i1 %160, label %161, label %174

161:                                              ; preds = %158
  %162 = load i32, i32* %5, align 4
  %163 = sext i32 %162 to i64
  %164 = getelementptr inbounds [300 x i32], [300 x i32]* %3, i64 0, i64 %163
  %165 = load i32, i32* %164, align 4
  %166 = load i32, i32* %12, align 4
  %167 = icmp ne i32 %165, %166
  br i1 %167, label %168, label %174

168:                                              ; preds = %161
  %169 = load i32, i32* %5, align 4
  %170 = sext i32 %169 to i64
  %171 = getelementptr inbounds [300 x i32], [300 x i32]* %3, i64 0, i64 %170
  %172 = load i32, i32* %171, align 4
  %173 = call i32 (i8*, ...) @printf(i8* getelementptr inbounds ([3 x i8], [3 x i8]* @.str, i64 0, i64 0), i32 %172)
  store i32 1, i32* %10, align 4
  br label %178

174:                                              ; preds = %161, %158
  br label %175

175:                                              ; preds = %174
  %176 = load i32, i32* %5, align 4
  %177 = add nsw i32 %176, 1
  store i32 %177, i32* %5, align 4
  br label %127

178:                                              ; preds = %168, %127
  %179 = load i32, i32* %10, align 4
  %180 = icmp eq i32 %179, 0
  br i1 %180, label %181, label %183

181:                                              ; preds = %178
  %182 = call i32 (i8*, ...) @printf(i8* getelementptr inbounds ([3 x i8], [3 x i8]* @.str.1, i64 0, i64 0))
  br label %183

183:                                              ; preds = %181, %178
  ret void
}